; Function Attrs: nounwind sspstrong uwtable
define hidden noundef i64 @rb_obj_public_methods(i32 noundef %0, ptr noundef readonly captures(none) %1, i64 noundef %2) local_unnamed_addr #0 {
  %4 = icmp eq i64 %2, 0
  %5 = and i64 %2, 7
  %6 = icmp ne i64 %5, 0
  %7 = or i1 %4, %6
  br i1 %7, label %11, label %8

8:                                                ; preds = %3
  %9 = inttoptr i64 %2 to ptr
  %10 = getelementptr inbounds nuw i8, ptr %9, i64 8
  br label %rb_class_of.exit

11:                                               ; preds = %3
  switch i64 %2, label %14 [
    i64 0, label %rb_class_of.exit
    i64 4, label %12
    i64 20, label %13
  ]

12:                                               ; preds = %11
  br label %rb_class_of.exit

13:                                               ; preds = %11
  br label %rb_class_of.exit

14:                                               ; preds = %11
  %15 = and i64 %2, 1
  %.not.i = icmp eq i64 %15, 0
  br i1 %.not.i, label %16, label %rb_class_of.exit

16:                                               ; preds = %14
  %17 = and i64 %2, 254
  %18 = icmp eq i64 %17, 12
  %spec.select.i = select i1 %18, ptr @rb_cSymbol, ptr @rb_cFloat
  br label %rb_class_of.exit

rb_class_of.exit:                                 ; preds = %8, %11, %12, %13, %14, %16
  %.0.in.i = phi ptr [ @rb_cNilClass, %12 ], [ @rb_cTrueClass, %13 ], [ %10, %8 ], [ @rb_cFalseClass, %11 ], [ @rb_cInteger, %14 ], [ %spec.select.i, %16 ]
  %.0.i = load i64, ptr %.0.in.i, align 8, !tbaa !29
  %19 = tail call fastcc i64 @class_instance_method_list(i32 noundef %0, ptr noundef %1, i64 noundef %.0.i, i32 noundef 1, ptr noundef nonnull @ins_methods_pub_i)
  ret i64 %19
}